target datalayout = "e-m:e-p270:32:32-p271:32:32-p272:64:64-i64:64-i128:128-f80:128-n8:16:32:64-S128"
target triple = "x86_64-unknown-linux-gnu"

%"class.QuantLib::Date" = type { i64 }
%"class.boost::detail::shared_count" = type { ptr }
%"class.QuantLib::DayCounter" = type { %"class.boost::shared_ptr.6" }
%"class.boost::shared_ptr.6" = type { ptr, %"class.boost::detail::shared_count" }
%"class.QuantLib::MakeArithmeticAverageOIS" = type { %"class.QuantLib::Period", %"class.boost::shared_ptr.18", double, %"class.QuantLib::Period", i32, %"class.QuantLib::Date", %"class.QuantLib::Date", %"class.QuantLib::Calendar", i32, i32, i32, i8, i8, i8, double, double, i32, double, double, %"class.QuantLib::DayCounter", %"class.boost::shared_ptr.19" }
%"class.boost::shared_ptr.18" = type { ptr, %"class.boost::detail::shared_count" }
%"class.QuantLib::Period" = type { i32, i32 }
%"class.QuantLib::Calendar" = type { %"class.boost::shared_ptr.7" }
%"class.boost::shared_ptr.7" = type { ptr, %"class.boost::detail::shared_count" }
%"class.boost::shared_ptr.19" = type { ptr, %"class.boost::detail::shared_count" }

; Function Attrs: mustprogress nounwind uwtable
define noundef nonnull align 8 dereferenceable(168) ptr @_ZN8QuantLib24MakeArithmeticAverageOIS8withRuleENS_14DateGeneration4RuleE(ptr noundef nonnull align 8 dereferenceable(168) %this, i32 noundef %r) #1 align 2 {
entry:
  %this.addr = alloca ptr, align 8
  %r.addr = alloca i32, align 4
  store ptr %this, ptr %this.addr, align 8, !tbaa !3
  store i32 %r, ptr %r.addr, align 4, !tbaa !91
  %this1 = load ptr, ptr %this.addr, align 8
  %0 = load i32, ptr %r.addr, align 4, !tbaa !91
  %rule_ = getelementptr inbounds nuw %"class.QuantLib::MakeArithmeticAverageOIS", ptr %this1, i32 0, i32 10
  store i32 %0, ptr %rule_, align 8, !tbaa !48
  %1 = load i32, ptr %r.addr, align 4, !tbaa !91
  %cmp = icmp eq i32 %1, 2
  br i1 %cmp, label %if.then, label %if.end

if.then:                                          ; preds = %entry
  %fixedLegPaymentFrequency_ = getelementptr inbounds nuw %"class.QuantLib::MakeArithmeticAverageOIS", ptr %this1, i32 0, i32 8
  store i32 0, ptr %fixedLegPaymentFrequency_, align 8, !tbaa !46
  %overnightLegPaymentFrequency_ = getelementptr inbounds nuw %"class.QuantLib::MakeArithmeticAverageOIS", ptr %this1, i32 0, i32 9
  store i32 0, ptr %overnightLegPaymentFrequency_, align 4, !tbaa !47
  br label %if.end

if.end:                                           ; preds = %if.then, %entry
  ret ptr %this1
}