; Function Attrs: mustprogress nofree norecurse nosync nounwind willreturn memory(argmem: write) uwtable
define noundef nonnull align 8 dereferenceable(168) ptr @_ZN8QuantLib24MakeArithmeticAverageOIS8withRuleENS_14DateGeneration4RuleE(ptr noundef nonnull returned writeonly align 8 dereferenceable(168) %this, i32 noundef %r) local_unnamed_addr #14 align 2 {
entry:
  %rule_ = getelementptr inbounds nuw i8, ptr %this, i64 88
  store i32 %r, ptr %rule_, align 8, !tbaa !65
  %cmp = icmp eq i32 %r, 2
  br i1 %cmp, label %if.then, label %if.end

if.then:                                          ; preds = %entry
  %fixedLegPaymentFrequency_ = getelementptr inbounds nuw i8, ptr %this, i64 80
  store i32 0, ptr %fixedLegPaymentFrequency_, align 8, !tbaa !63
  %overnightLegPaymentFrequency_ = getelementptr inbounds nuw i8, ptr %this, i64 84
  store i32 0, ptr %overnightLegPaymentFrequency_, align 4, !tbaa !64
  br label %if.end

if.end:                                           ; preds = %if.then, %entry
  ret ptr %this
}